target datalayout = "e-m:e-p270:32:32-p271:32:32-p272:64:64-i64:64-i128:128-f80:128-n8:16:32:64-S128"
target triple = "x86_64-pc-linux-gnu"

@.str.23 = private unnamed_addr constant [18 x i8] c"TEST_int_eq(1, 1)\00", align 1
@.str.24 = private unnamed_addr constant [28 x i8] c"../openssl/test/test_test.c\00", align 1
@.str.25 = private unnamed_addr constant [2 x i8] c"1\00", align 1
@.str.26 = private unnamed_addr constant [19 x i8] c"TEST_int_eq(1, -1)\00", align 1
@.str.27 = private unnamed_addr constant [3 x i8] c"-1\00", align 1
@.str.28 = private unnamed_addr constant [18 x i8] c"TEST_int_ne(1, 2)\00", align 1
@.str.29 = private unnamed_addr constant [2 x i8] c"2\00", align 1
@.str.30 = private unnamed_addr constant [18 x i8] c"TEST_int_ne(3, 3)\00", align 1
@.str.31 = private unnamed_addr constant [2 x i8] c"3\00", align 1
@.str.32 = private unnamed_addr constant [18 x i8] c"TEST_int_lt(4, 9)\00", align 1
@.str.33 = private unnamed_addr constant [2 x i8] c"4\00", align 1
@.str.34 = private unnamed_addr constant [2 x i8] c"9\00", align 1
@.str.35 = private unnamed_addr constant [18 x i8] c"TEST_int_lt(9, 4)\00", align 1
@.str.36 = private unnamed_addr constant [18 x i8] c"TEST_int_le(4, 9)\00", align 1
@.str.37 = private unnamed_addr constant [18 x i8] c"TEST_int_le(5, 5)\00", align 1
@.str.38 = private unnamed_addr constant [2 x i8] c"5\00", align 1
@.str.39 = private unnamed_addr constant [18 x i8] c"TEST_int_le(9, 4)\00", align 1
@.str.40 = private unnamed_addr constant [18 x i8] c"TEST_int_gt(8, 5)\00", align 1
@.str.41 = private unnamed_addr constant [2 x i8] c"8\00", align 1
@.str.42 = private unnamed_addr constant [18 x i8] c"TEST_int_gt(5, 8)\00", align 1
@.str.43 = private unnamed_addr constant [18 x i8] c"TEST_int_ge(8, 5)\00", align 1
@.str.44 = private unnamed_addr constant [18 x i8] c"TEST_int_ge(6, 6)\00", align 1
@.str.45 = private unnamed_addr constant [2 x i8] c"6\00", align 1
@.str.46 = private unnamed_addr constant [18 x i8] c"TEST_int_ge(5, 8)\00", align 1
@stderr = external global ptr, align 8
@.str.47 = private unnamed_addr constant [19 x i8] c"# FATAL: %s != %d\0A\00", align 1

; Function Attrs: nounwind uwtable
define internal i32 @test_case(i32 noundef %0, ptr noundef %1, i32 noundef %2) #0 {
  %4 = alloca i32, align 4
  %5 = alloca i32, align 4
  %6 = alloca ptr, align 8
  %7 = alloca i32, align 4
  store i32 %0, ptr %5, align 4, !tbaa !4
  store ptr %1, ptr %6, align 8, !tbaa !9
  store i32 %2, ptr %7, align 4, !tbaa !4
  %8 = load i32, ptr %7, align 4, !tbaa !4
  %9 = load i32, ptr %5, align 4, !tbaa !4
  %10 = icmp ne i32 %8, %9
  br i1 %10, label %11, label %16

11:                                               ; preds = %3
  %12 = load ptr, ptr @stderr, align 8, !tbaa !16
  %13 = load ptr, ptr %6, align 8, !tbaa !9
  %14 = load i32, ptr %5, align 4, !tbaa !4
  %15 = call i32 (ptr, ptr, ...) @fprintf(ptr noundef %12, ptr noundef @.str.47, ptr noundef %13, i32 noundef %14) #7
  store i32 0, ptr %4, align 4
  br label %17

16:                                               ; preds = %3
  store i32 1, ptr %4, align 4
  br label %17

17:                                               ; preds = %16, %11
  %18 = load i32, ptr %4, align 4
  ret i32 %18
}

; Function Attrs: nounwind uwtable
define internal i32 @test_int() #0 {
  %1 = alloca i32, align 4
  %2 = call i32 @test_int_eq(ptr noundef @.str.24, i32 noundef 35, ptr noundef @.str.25, ptr noundef @.str.25, i32 noundef 1, i32 noundef 1)
  %3 = call i32 @test_case(i32 noundef 1, ptr noundef @.str.23, i32 noundef %2)
  %4 = icmp ne i32 %3, 0
  br i1 %4, label %5, label %57

5:                                                ; preds = %0
  %6 = call i32 @test_int_eq(ptr noundef @.str.24, i32 noundef 36, ptr noundef @.str.25, ptr noundef @.str.27, i32 noundef 1, i32 noundef -1)
  %7 = call i32 @test_case(i32 noundef 0, ptr noundef @.str.26, i32 noundef %6)
  %8 = icmp ne i32 %7, 0
  br i1 %8, label %9, label %57

9:                                                ; preds = %5
  %10 = call i32 @test_int_ne(ptr noundef @.str.24, i32 noundef 37, ptr noundef @.str.25, ptr noundef @.str.29, i32 noundef 1, i32 noundef 2)
  %11 = call i32 @test_case(i32 noundef 1, ptr noundef @.str.28, i32 noundef %10)
  %12 = icmp ne i32 %11, 0
  br i1 %12, label %13, label %57

13:                                               ; preds = %9
  %14 = call i32 @test_int_ne(ptr noundef @.str.24, i32 noundef 38, ptr noundef @.str.31, ptr noundef @.str.31, i32 noundef 3, i32 noundef 3)
  %15 = call i32 @test_case(i32 noundef 0, ptr noundef @.str.30, i32 noundef %14)
  %16 = icmp ne i32 %15, 0
  br i1 %16, label %17, label %57

17:                                               ; preds = %13
  %18 = call i32 @test_int_lt(ptr noundef @.str.24, i32 noundef 39, ptr noundef @.str.33, ptr noundef @.str.34, i32 noundef 4, i32 noundef 9)
  %19 = call i32 @test_case(i32 noundef 1, ptr noundef @.str.32, i32 noundef %18)
  %20 = icmp ne i32 %19, 0
  br i1 %20, label %21, label %57

21:                                               ; preds = %17
  %22 = call i32 @test_int_lt(ptr noundef @.str.24, i32 noundef 40, ptr noundef @.str.34, ptr noundef @.str.33, i32 noundef 9, i32 noundef 4)
  %23 = call i32 @test_case(i32 noundef 0, ptr noundef @.str.35, i32 noundef %22)
  %24 = icmp ne i32 %23, 0
  br i1 %24, label %25, label %57

25:                                               ; preds = %21
  %26 = call i32 @test_int_le(ptr noundef @.str.24, i32 noundef 41, ptr noundef @.str.33, ptr noundef @.str.34, i32 noundef 4, i32 noundef 9)
  %27 = call i32 @test_case(i32 noundef 1, ptr noundef @.str.36, i32 noundef %26)
  %28 = icmp ne i32 %27, 0
  br i1 %28, label %29, label %57

29:                                               ; preds = %25
  %30 = call i32 @test_int_le(ptr noundef @.str.24, i32 noundef 42, ptr noundef @.str.38, ptr noundef @.str.38, i32 noundef 5, i32 noundef 5)
  %31 = call i32 @test_case(i32 noundef 1, ptr noundef @.str.37, i32 noundef %30)
  %32 = icmp ne i32 %31, 0
  br i1 %32, label %33, label %57

33:                                               ; preds = %29
  %34 = call i32 @test_int_le(ptr noundef @.str.24, i32 noundef 43, ptr noundef @.str.34, ptr noundef @.str.33, i32 noundef 9, i32 noundef 4)
  %35 = call i32 @test_case(i32 noundef 0, ptr noundef @.str.39, i32 noundef %34)
  %36 = icmp ne i32 %35, 0
  br i1 %36, label %37, label %57

37:                                               ; preds = %33
  %38 = call i32 @test_int_gt(ptr noundef @.str.24, i32 noundef 44, ptr noundef @.str.41, ptr noundef @.str.38, i32 noundef 8, i32 noundef 5)
  %39 = call i32 @test_case(i32 noundef 1, ptr noundef @.str.40, i32 noundef %38)
  %40 = icmp ne i32 %39, 0
  br i1 %40, label %41, label %57

41:                                               ; preds = %37
  %42 = call i32 @test_int_gt(ptr noundef @.str.24, i32 noundef 45, ptr noundef @.str.38, ptr noundef @.str.41, i32 noundef 5, i32 noundef 8)
  %43 = call i32 @test_case(i32 noundef 0, ptr noundef @.str.42, i32 noundef %42)
  %44 = icmp ne i32 %43, 0
  br i1 %44, label %45, label %57

45:                                               ; preds = %41
  %46 = call i32 @test_int_ge(ptr noundef @.str.24, i32 noundef 46, ptr noundef @.str.41, ptr noundef @.str.38, i32 noundef 8, i32 noundef 5)
  %47 = call i32 @test_case(i32 noundef 1, ptr noundef @.str.43, i32 noundef %46)
  %48 = icmp ne i32 %47, 0
  br i1 %48, label %49, label %57

49:                                               ; preds = %45
  %50 = call i32 @test_int_ge(ptr noundef @.str.24, i32 noundef 47, ptr noundef @.str.45, ptr noundef @.str.45, i32 noundef 6, i32 noundef 6)
  %51 = call i32 @test_case(i32 noundef 1, ptr noundef @.str.44, i32 noundef %50)
  %52 = icmp ne i32 %51, 0
  br i1 %52, label %53, label %57

53:                                               ; preds = %49
  %54 = call i32 @test_int_ge(ptr noundef @.str.24, i32 noundef 48, ptr noundef @.str.38, ptr noundef @.str.41, i32 noundef 5, i32 noundef 8)
  %55 = call i32 @test_case(i32 noundef 0, ptr noundef @.str.46, i32 noundef %54)
  %56 = icmp ne i32 %55, 0
  br i1 %56, label %58, label %57

57:                                               ; preds = %53, %49, %45, %41, %37, %33, %29, %25, %21, %17, %13, %9, %5, %0
  br label %59

58:                                               ; preds = %53
  store i32 1, ptr %1, align 4
  br label %60

59:                                               ; preds = %57
  store i32 0, ptr %1, align 4
  br label %60

60:                                               ; preds = %59, %58
  %61 = load i32, ptr %1, align 4
  ret i32 %61
}